target datalayout = "e-m:e-p270:32:32-p271:32:32-p272:64:64-i64:64-i128:128-f80:128-n8:16:32:64-S128"
target triple = "x86_64-pc-linux-gnu"

%struct._wsp_status_code_t = type { ptr, i32 }

; Function Attrs: null_pointer_is_valid sspstrong uwtable
define internal void @wsp_print_statuscode(ptr noundef %0, ptr noundef %1, ptr noundef %2) #0 {
  %4 = alloca ptr, align 8
  %5 = alloca ptr, align 8
  %6 = alloca ptr, align 8
  store ptr %0, ptr %4, align 8
  store ptr %1, ptr %5, align 8
  store ptr %2, ptr %6, align 8
  %7 = load ptr, ptr %5, align 8
  %8 = icmp ne ptr %7, null
  br i1 %8, label %9, label %26

9:                                                ; preds = %3
  %10 = load ptr, ptr %5, align 8
  %11 = getelementptr inbounds nuw %struct._wsp_status_code_t, ptr %10, i32 0, i32 1
  %12 = load i32, ptr %11, align 8
  %13 = icmp ne i32 %12, 0
  br i1 %13, label %14, label %26

14:                                               ; preds = %9
  %15 = load ptr, ptr %6, align 8
  %16 = load ptr, ptr %4, align 8
  %17 = ptrtoint ptr %16 to i64
  %18 = trunc i64 %17 to i32
  %19 = load ptr, ptr %5, align 8
  %20 = getelementptr inbounds nuw %struct._wsp_status_code_t, ptr %19, i32 0, i32 1
  %21 = load i32, ptr %20, align 8
  %22 = load ptr, ptr %5, align 8
  %23 = getelementptr inbounds nuw %struct._wsp_status_code_t, ptr %22, i32 0, i32 0
  %24 = load ptr, ptr %23, align 8
  %25 = call i32 (i32, ptr, ...) @__printf_chk(i32 noundef 2, ptr noundef %15, i32 noundef %18, i32 noundef %21, ptr noundef %24)
  br label %26

26:                                               ; preds = %14, %9, %3
  ret void
}