; Function Attrs: null_pointer_is_valid sspstrong uwtable
define internal void @wsp_print_statuscode(ptr noundef %0, ptr noundef readonly captures(address_is_null) %1, ptr noundef %2) #0 {
  %.not = icmp eq ptr %1, null
  br i1 %.not, label %12, label %4

4:                                                ; preds = %3
  %5 = getelementptr inbounds nuw i8, ptr %1, i64 8
  %6 = load i32, ptr %5, align 8
  %.not7 = icmp eq i32 %6, 0
  br i1 %.not7, label %12, label %7

7:                                                ; preds = %4
  %8 = ptrtoint ptr %0 to i64
  %9 = trunc i64 %8 to i32
  %10 = load ptr, ptr %1, align 8
  %11 = tail call i32 (i32, ptr, ...) @__printf_chk(i32 noundef 2, ptr noundef %2, i32 noundef %9, i32 noundef %6, ptr noundef %10)
  br label %12

12:                                               ; preds = %7, %4, %3
  ret void
}